target datalayout = "e-m:e-p270:32:32-p271:32:32-p272:64:64-i64:64-i128:128-f80:128-n8:16:32:64-S128"
target triple = "x86_64-unknown-linux-gnu"

%"struct.std::atomic.0" = type { %"struct.std::__atomic_base.1" }
%"struct.std::__atomic_base.1" = type { i64 }
%"class.grpc_core::ChannelArgs" = type { %"class.grpc_core::AVL" }
%"class.grpc_core::AVL" = type { %"class.grpc_core::RefCountedPtr.2" }
%"class.grpc_core::RefCountedPtr.2" = type { ptr }
%"class.grpc_core::RefCountedPtr" = type { ptr }
%struct.grpc_closure = type { %union.anon, ptr, ptr, %union.anon.3 }
%union.anon = type { ptr }
%union.anon.3 = type { i64 }
%"class.absl::lts_20230802::Status" = type { i64 }
%"class.grpc_core::RefCountedPtr.17" = type { ptr }
%"class.grpc_core::Timestamp" = type { i64 }
%"struct.std::atomic.23" = type { %"struct.std::__atomic_base.24" }
%"struct.std::__atomic_base.24" = type { i64 }
%"class.absl::lts_20230802::Mutex" = type { %"struct.std::atomic.0" }
%"class.grpc_core::RefCountedPtr.32" = type { ptr }
%"class.grpc_core::Subchannel::ConnectivityStateWatcherList" = type { ptr, %"class.std::map" }
%"class.std::map" = type { %"class.std::_Rb_tree" }
%"class.std::_Rb_tree" = type { %"struct.std::_Rb_tree<grpc_core::Subchannel::ConnectivityStateWatcherInterface *, std::pair<grpc_core::Subchannel::ConnectivityStateWatcherInterface *const, grpc_core::RefCountedPtr<grpc_core::Subchannel::ConnectivityStateWatcherInterface>>, std::_Select1st<std::pair<grpc_core::Subchannel::ConnectivityStateWatcherInterface *const, grpc_core::RefCountedPtr<grpc_core::Subchannel::ConnectivityStateWatcherInterface>>>, std::less<grpc_core::Subchannel::ConnectivityStateWatcherInterface *>>::_Rb_tree_impl" }
%"struct.std::_Rb_tree<grpc_core::Subchannel::ConnectivityStateWatcherInterface *, std::pair<grpc_core::Subchannel::ConnectivityStateWatcherInterface *const, grpc_core::RefCountedPtr<grpc_core::Subchannel::ConnectivityStateWatcherInterface>>, std::_Select1st<std::pair<grpc_core::Subchannel::ConnectivityStateWatcherInterface *const, grpc_core::RefCountedPtr<grpc_core::Subchannel::ConnectivityStateWatcherInterface>>>, std::less<grpc_core::Subchannel::ConnectivityStateWatcherInterface *>>::_Rb_tree_impl" = type { %"struct.std::_Rb_tree_key_compare", %"struct.std::_Rb_tree_header" }
%"struct.std::_Rb_tree_key_compare" = type { %"struct.std::less" }
%"struct.std::less" = type { i8 }
%"struct.std::_Rb_tree_header" = type { %"struct.std::_Rb_tree_node_base", i64 }
%"struct.std::_Rb_tree_node_base" = type { i32, ptr, ptr, ptr }
%"class.grpc_core::Subchannel" = type { %"class.grpc_core::DualRefCounted", %"class.grpc_core::RefCountedPtr.50", %"class.grpc_core::SubchannelKey", %struct.grpc_resolved_address, %"class.grpc_core::ChannelArgs", ptr, %"class.grpc_core::RefCountedPtr", %"class.grpc_core::Duration", %"class.std::unique_ptr.51", %"struct.grpc_core::SubchannelConnector::Result", %struct.grpc_closure, %"class.absl::lts_20230802::Mutex", i8, i32, %"class.absl::lts_20230802::Status", %"class.grpc_core::Subchannel::ConnectivityStateWatcherList", %"class.grpc_core::WorkSerializer", %"class.grpc_core::RefCountedPtr.17", %"class.grpc_core::BackOff", %"class.grpc_core::Timestamp", %"struct.grpc_event_engine::experimental::EventEngine::TaskHandle", i32, %"class.std::map.63", %"class.std::shared_ptr" }
%"class.grpc_core::DualRefCounted" = type { %"class.grpc_core::Orphanable", %"struct.std::atomic.23" }
%"class.grpc_core::Orphanable" = type { ptr }
%"class.grpc_core::RefCountedPtr.50" = type { ptr }
%"class.grpc_core::SubchannelKey" = type { %struct.grpc_resolved_address, %"class.grpc_core::ChannelArgs" }
%struct.grpc_resolved_address = type { [128 x i8], i32 }
%"class.grpc_core::Duration" = type { i64 }
%"class.std::unique_ptr.51" = type { %"struct.std::__uniq_ptr_data.52" }
%"struct.std::__uniq_ptr_data.52" = type { %"class.std::__uniq_ptr_impl.53" }
%"class.std::__uniq_ptr_impl.53" = type { %"class.std::tuple.54" }
%"class.std::tuple.54" = type { %"struct.std::_Tuple_impl.55" }
%"struct.std::_Tuple_impl.55" = type { %"struct.std::_Head_base.56" }
%"struct.std::_Head_base.56" = type { ptr }
%"struct.grpc_core::SubchannelConnector::Result" = type { ptr, %"class.grpc_core::ChannelArgs", %"class.grpc_core::RefCountedPtr.32" }
%"class.grpc_core::WorkSerializer" = type { %"class.std::unique_ptr.57" }
%"class.std::unique_ptr.57" = type { %"struct.std::__uniq_ptr_data.58" }
%"struct.std::__uniq_ptr_data.58" = type { %"class.std::__uniq_ptr_impl.59" }
%"class.std::__uniq_ptr_impl.59" = type { %"class.std::tuple.60" }
%"class.std::tuple.60" = type { %"struct.std::_Tuple_impl.61" }
%"struct.std::_Tuple_impl.61" = type { %"struct.std::_Head_base.62" }
%"struct.std::_Head_base.62" = type { ptr }
%"class.grpc_core::BackOff" = type { %"class.grpc_core::BackOff::Options", %"class.absl::lts_20230802::random_internal::NonsecureURBGBase", i8, %"class.grpc_core::Duration" }
%"class.grpc_core::BackOff::Options" = type { %"class.grpc_core::Duration", double, double, %"class.grpc_core::Duration" }
%"class.absl::lts_20230802::random_internal::NonsecureURBGBase" = type { %"class.absl::lts_20230802::random_internal::randen_engine" }
%"class.absl::lts_20230802::random_internal::randen_engine" = type { [264 x i8], i64, %"class.absl::lts_20230802::random_internal::Randen" }
%"class.absl::lts_20230802::random_internal::Randen" = type <{ ptr, i8, [7 x i8] }>
%"struct.grpc_event_engine::experimental::EventEngine::TaskHandle" = type { [2 x i64] }
%"class.std::map.63" = type { %"class.std::_Rb_tree.64" }
%"class.std::_Rb_tree.64" = type { %"struct.std::_Rb_tree<grpc_core::UniqueTypeName, std::pair<const grpc_core::UniqueTypeName, grpc_core::Subchannel::DataProducerInterface *>, std::_Select1st<std::pair<const grpc_core::UniqueTypeName, grpc_core::Subchannel::DataProducerInterface *>>, std::less<grpc_core::UniqueTypeName>>::_Rb_tree_impl" }
%"struct.std::_Rb_tree<grpc_core::UniqueTypeName, std::pair<const grpc_core::UniqueTypeName, grpc_core::Subchannel::DataProducerInterface *>, std::_Select1st<std::pair<const grpc_core::UniqueTypeName, grpc_core::Subchannel::DataProducerInterface *>>, std::less<grpc_core::UniqueTypeName>>::_Rb_tree_impl" = type { %"struct.std::_Rb_tree_key_compare.68", %"struct.std::_Rb_tree_header" }
%"struct.std::_Rb_tree_key_compare.68" = type { %"struct.std::less.69" }
%"struct.std::less.69" = type { i8 }
%"class.std::shared_ptr" = type { %"class.std::__shared_ptr" }
%"class.std::__shared_ptr" = type { ptr, %"class.std::__shared_count" }
%"class.std::__shared_count" = type { ptr }
%"class.absl::lts_20230802::MutexLock" = type { ptr }

; Function Attrs: mustprogress nounwind uwtable
define linkonce_odr void @_ZN4absl12lts_202308029MutexLockD2Ev(ptr noundef nonnull align 8 dereferenceable(8) %this) unnamed_addr #5 comdat align 2 personality ptr @__gxx_personality_v0 {
entry:
  %this.addr = alloca ptr, align 8
  store ptr %this, ptr %this.addr, align 8
  %this1 = load ptr, ptr %this.addr, align 8
  %mu_ = getelementptr inbounds %"class.absl::lts_20230802::MutexLock", ptr %this1, i32 0, i32 0
  %0 = load ptr, ptr %mu_, align 8
  invoke void @_ZN4absl12lts_202308025Mutex6UnlockEv(ptr noundef nonnull align 8 dereferenceable(8) %0)
          to label %invoke.cont unwind label %terminate.lpad

invoke.cont:                                      ; preds = %entry
  ret void

terminate.lpad:                                   ; preds = %entry
  %1 = landingpad { ptr, i32 }
          catch ptr null
  %2 = extractvalue { ptr, i32 } %1, 0
  call void @__clang_call_terminate(ptr %2) #18
  unreachable
}

; Function Attrs: mustprogress uwtable
define linkonce_odr void @_ZN4absl12lts_202308029MutexLockC2EPNS0_5MutexE(ptr noundef nonnull align 8 dereferenceable(8) %this, ptr noundef %mu) unnamed_addr #4 comdat align 2 {
entry:
  %this.addr = alloca ptr, align 8
  %mu.addr = alloca ptr, align 8
  store ptr %this, ptr %this.addr, align 8
  store ptr %mu, ptr %mu.addr, align 8
  %this1 = load ptr, ptr %this.addr, align 8
  %mu_ = getelementptr inbounds %"class.absl::lts_20230802::MutexLock", ptr %this1, i32 0, i32 0
  %0 = load ptr, ptr %mu.addr, align 8
  store ptr %0, ptr %mu_, align 8
  %mu_2 = getelementptr inbounds %"class.absl::lts_20230802::MutexLock", ptr %this1, i32 0, i32 0
  %1 = load ptr, ptr %mu_2, align 8
  call void @_ZN4absl12lts_202308025Mutex4LockEv(ptr noundef nonnull align 8 dereferenceable(8) %1)
  ret void
}

; Function Attrs: mustprogress uwtable
define void @_ZN9grpc_core10Subchannel17RequestConnectionEv(ptr noundef nonnull align 8 dereferenceable(928) %this) #4 align 2 personality ptr @__gxx_personality_v0 {
entry:
  %this.addr = alloca ptr, align 8
  %lock = alloca %"class.absl::lts_20230802::MutexLock", align 8
  %exn.slot = alloca ptr, align 8
  %ehselector.slot = alloca i32, align 4
  store ptr %this, ptr %this.addr, align 8
  %this1 = load ptr, ptr %this.addr, align 8
  %mu_ = getelementptr inbounds %"class.grpc_core::Subchannel", ptr %this1, i32 0, i32 11
  call void @_ZN4absl12lts_202308029MutexLockC2EPNS0_5MutexE(ptr noundef nonnull align 8 dereferenceable(8) %lock, ptr noundef %mu_)
  %state_ = getelementptr inbounds %"class.grpc_core::Subchannel", ptr %this1, i32 0, i32 13
  %0 = load i32, ptr %state_, align 4
  %cmp = icmp eq i32 %0, 0
  br i1 %cmp, label %if.then, label %if.end

if.then:                                          ; preds = %entry
  invoke void @_ZN9grpc_core10Subchannel21StartConnectingLockedEv(ptr noundef nonnull align 8 dereferenceable(928) %this1)
          to label %invoke.cont unwind label %lpad

invoke.cont:                                      ; preds = %if.then
  br label %if.end

lpad:                                             ; preds = %if.then
  %1 = landingpad { ptr, i32 }
          cleanup
  %2 = extractvalue { ptr, i32 } %1, 0
  store ptr %2, ptr %exn.slot, align 8
  %3 = extractvalue { ptr, i32 } %1, 1
  store i32 %3, ptr %ehselector.slot, align 4
  call void @_ZN4absl12lts_202308029MutexLockD2Ev(ptr noundef nonnull align 8 dereferenceable(8) %lock) #3
  br label %eh.resume

if.end:                                           ; preds = %invoke.cont, %entry
  call void @_ZN4absl12lts_202308029MutexLockD2Ev(ptr noundef nonnull align 8 dereferenceable(8) %lock) #3
  %work_serializer_ = getelementptr inbounds %"class.grpc_core::Subchannel", ptr %this1, i32 0, i32 16
  call void @_ZN9grpc_core14WorkSerializer10DrainQueueEv(ptr noundef nonnull align 8 dereferenceable(8) %work_serializer_)
  ret void

eh.resume:                                        ; preds = %lpad
  %exn = load ptr, ptr %exn.slot, align 8
  %sel = load i32, ptr %ehselector.slot, align 4
  %lpad.val = insertvalue { ptr, i32 } poison, ptr %exn, 0
  %lpad.val2 = insertvalue { ptr, i32 } %lpad.val, i32 %sel, 1
  resume { ptr, i32 } %lpad.val2
}