; Function Attrs: mustprogress uwtable
define void @_ZN9grpc_core10Subchannel17RequestConnectionEv(ptr noundef nonnull align 8 dereferenceable(928) %this) local_unnamed_addr #3 align 2 personality ptr @__gxx_personality_v0 {
entry:
  %mu_ = getelementptr inbounds i8, ptr %this, i64 400
  tail call void @_ZN4absl12lts_202308025Mutex4LockEv(ptr noundef nonnull align 8 dereferenceable(8) %mu_)
  %state_ = getelementptr inbounds i8, ptr %this, i64 412
  %0 = load i32, ptr %state_, align 4
  %cmp = icmp eq i32 %0, 0
  br i1 %cmp, label %if.then, label %if.end

if.then:                                          ; preds = %entry
  invoke void @_ZN9grpc_core10Subchannel21StartConnectingLockedEv(ptr noundef nonnull align 8 dereferenceable(928) %this)
          to label %if.end unwind label %lpad

lpad:                                             ; preds = %if.then
  %1 = landingpad { ptr, i32 }
          cleanup
  invoke void @_ZN4absl12lts_202308025Mutex6UnlockEv(ptr noundef nonnull align 8 dereferenceable(8) %mu_)
          to label %_ZN4absl12lts_202308029MutexLockD2Ev.exit unwind label %terminate.lpad.i

terminate.lpad.i:                                 ; preds = %lpad
  %2 = landingpad { ptr, i32 }
          catch ptr null
  %3 = extractvalue { ptr, i32 } %2, 0
  tail call void @__clang_call_terminate(ptr %3) #27
  unreachable

_ZN4absl12lts_202308029MutexLockD2Ev.exit:        ; preds = %lpad
  resume { ptr, i32 } %1

if.end:                                           ; preds = %if.then, %entry
  invoke void @_ZN4absl12lts_202308025Mutex6UnlockEv(ptr noundef nonnull align 8 dereferenceable(8) %mu_)
          to label %_ZN4absl12lts_202308029MutexLockD2Ev.exit2 unwind label %terminate.lpad.i1

terminate.lpad.i1:                                ; preds = %if.end
  %4 = landingpad { ptr, i32 }
          catch ptr null
  %5 = extractvalue { ptr, i32 } %4, 0
  tail call void @__clang_call_terminate(ptr %5) #27
  unreachable

_ZN4absl12lts_202308029MutexLockD2Ev.exit2:       ; preds = %if.end
  %work_serializer_ = getelementptr inbounds i8, ptr %this, i64 480
  tail call void @_ZN9grpc_core14WorkSerializer10DrainQueueEv(ptr noundef nonnull align 8 dereferenceable(8) %work_serializer_)
  ret void
}